; ModuleID = '31/406.c'
source_filename = "31/406.c"
target datalayout = "e-m:e-p270:32:32-p271:32:32-p272:64:64-i64:64-f80:128-n8:16:32:64-S128"
target triple = "x86_64-pc-linux-gnu"

%struct.stu = type { [50 x i8], %struct.stu* }

@.str = private unnamed_addr constant [4 x i8] c"end\00", align 1
@.str.1 = private unnamed_addr constant [4 x i8] c"%s\0A\00", align 1

; Function Attrs: noinline nounwind uwtable
define dso_local i32 @main(i32 %0, i8** %1) #0 {
  %3 = alloca i32, align 4
  %4 = alloca i32, align 4
  %5 = alloca i8**, align 8
  %6 = alloca %struct.stu*, align 8
  %7 = alloca %struct.stu*, align 8
  %8 = alloca %struct.stu*, align 8
  store i32 0, i32* %3, align 4
  store i32 %0, i32* %4, align 4
  store i8** %1, i8*** %5, align 8
  store %struct.stu* null, %struct.stu** %8, align 8
  br label %9

9:                                                ; preds = %2, %22
  %10 = call noalias i8* @malloc(i64 100) #4
  %11 = bitcast i8* %10 to %struct.stu*
  store %struct.stu* %11, %struct.stu** %7, align 8
  %12 = load %struct.stu*, %struct.stu** %7, align 8
  %13 = getelementptr inbounds %struct.stu, %struct.stu* %12, i32 0, i32 0
  %14 = getelementptr inbounds [50 x i8], [50 x i8]* %13, i64 0, i64 0
  %15 = call i32 (i8*, ...) bitcast (i32 (...)* @gets to i32 (i8*, ...)*)(i8* %14)
  %16 = load %struct.stu*, %struct.stu** %7, align 8
  %17 = getelementptr inbounds %struct.stu, %struct.stu* %16, i32 0, i32 0
  %18 = getelementptr inbounds [50 x i8], [50 x i8]* %17, i64 0, i64 0
  %19 = call i32 @strcmp(i8* %18, i8* getelementptr inbounds ([4 x i8], [4 x i8]* @.str, i64 0, i64 0)) #5
  %20 = icmp eq i32 %19, 0
  br i1 %20, label %21, label %22

21:                                               ; preds = %9
  br label %27

22:                                               ; preds = %9
  %23 = load %struct.stu*, %struct.stu** %8, align 8
  %24 = load %struct.stu*, %struct.stu** %7, align 8
  %25 = getelementptr inbounds %struct.stu, %struct.stu* %24, i32 0, i32 1
  store %struct.stu* %23, %struct.stu** %25, align 8
  %26 = load %struct.stu*, %struct.stu** %7, align 8
  store %struct.stu* %26, %struct.stu** %8, align 8
  br label %9

27:                                               ; preds = %21
  %28 = load %struct.stu*, %struct.stu** %8, align 8
  store %struct.stu* %28, %struct.stu** %6, align 8
  %29 = load %struct.stu*, %struct.stu** %6, align 8
  store %struct.stu* %29, %struct.stu** %7, align 8
  br label %30

30:                                               ; preds = %27, %40
  %31 = load %struct.stu*, %struct.stu** %7, align 8
  %32 = getelementptr inbounds %struct.stu, %struct.stu* %31, i32 0, i32 0
  %33 = getelementptr inbounds [50 x i8], [50 x i8]* %32, i64 0, i64 0
  %34 = call i32 (i8*, ...) @printf(i8* getelementptr inbounds ([4 x i8], [4 x i8]* @.str.1, i64 0, i64 0), i8* %33)
  %35 = load %struct.stu*, %struct.stu** %7, align 8
  %36 = getelementptr inbounds %struct.stu, %struct.stu* %35, i32 0, i32 1
  %37 = load %struct.stu*, %struct.stu** %36, align 8
  %38 = icmp eq %struct.stu* %37, null
  br i1 %38, label %39, label %40

39:                                               ; preds = %30
  br label %47

40:                                               ; preds = %30
  %41 = load %struct.stu*, %struct.stu** %7, align 8
  %42 = getelementptr inbounds %struct.stu, %struct.stu* %41, i32 0, i32 1
  %43 = load %struct.stu*, %struct.stu** %42, align 8
  store %struct.stu* %43, %struct.stu** %7, align 8
  %44 = load %struct.stu*, %struct.stu** %8, align 8
  %45 = bitcast %struct.stu* %44 to i8*
  call void @free(i8* %45) #4
  %46 = load %struct.stu*, %struct.stu** %7, align 8
  store %struct.stu* %46, %struct.stu** %8, align 8
  br label %30

47:                                               ; preds = %39
  ret i32 0
}

; Function Attrs: nounwind
declare dso_local noalias i8* @malloc(i64) #1

declare dso_local i32 @gets(...) #2

; Function Attrs: nounwind readonly
declare dso_local i32 @strcmp(i8*, i8*) #3

declare dso_local i32 @printf(i8*, ...) #2

; Function Attrs: nounwind
declare dso_local void @free(i8*) #1


!llvm.module.flags = !{!0}
!llvm.ident = !{!1}

!0 = !{i32 1, !"wchar_size", i32 4}
!1 = !{!"clang version 10.0.0-4ubuntu1 "}
